; ModuleID = 'source-C-CXX/30/262.c'
source_filename = "source-C-CXX/30/262.c"
target datalayout = "e-m:e-p270:32:32-p271:32:32-p272:64:64-i64:64-f80:128-n8:16:32:64-S128"
target triple = "x86_64-pc-linux-gnu"

%struct.student = type { [20 x i8], [20 x i8], [2 x i8], i32, float, [50 x i8], %struct.student* }

@n = dso_local local_unnamed_addr global i32 0, align 4
@.str = private unnamed_addr constant [3 x i8] c"%s\00", align 1
@.str.1 = private unnamed_addr constant [11 x i8] c"%s%s%d%f%s\00", align 1
@.str.2 = private unnamed_addr constant [4 x i8] c"end\00", align 1
@.str.3 = private unnamed_addr constant [19 x i8] c"%s %s %s %d %g %s\0A\00", align 1

; Function Attrs: nofree nounwind sspstrong uwtable
define dso_local %struct.student* @creat() local_unnamed_addr #0 {
  store i32 0, i32* @n, align 4, !tbaa !5
  %1 = tail call noalias align 16 dereferenceable_or_null(100) i8* @malloc(i64 100) #4
  %2 = bitcast i8* %1 to %struct.student*
  %3 = getelementptr inbounds %struct.student, %struct.student* %2, i64 0, i32 0, i64 0
  %4 = tail call i32 (i8*, ...) @__isoc99_scanf(i8* getelementptr inbounds ([3 x i8], [3 x i8]* @.str, i64 0, i64 0), i8* %3)
  br label %5

5:                                                ; preds = %23, %0
  %6 = phi %struct.student* [ %2, %0 ], [ %26, %23 ]
  %7 = phi %struct.student* [ %2, %0 ], [ %24, %23 ]
  %8 = getelementptr inbounds %struct.student, %struct.student* %6, i64 0, i32 1, i64 0
  %9 = getelementptr inbounds %struct.student, %struct.student* %6, i64 0, i32 2, i64 0
  %10 = getelementptr inbounds %struct.student, %struct.student* %6, i64 0, i32 3
  %11 = getelementptr inbounds %struct.student, %struct.student* %6, i64 0, i32 4
  %12 = getelementptr inbounds %struct.student, %struct.student* %6, i64 0, i32 5, i64 0
  %13 = tail call i32 (i8*, ...) @__isoc99_scanf(i8* getelementptr inbounds ([11 x i8], [11 x i8]* @.str.1, i64 0, i64 0), i8* nonnull %8, i8* nonnull %9, i32* nonnull %10, float* nonnull %11, i8* nonnull %12)
  %14 = load i32, i32* @n, align 4, !tbaa !5
  %15 = add nsw i32 %14, 1
  store i32 %15, i32* @n, align 4, !tbaa !5
  %16 = icmp eq i32 %14, 0
  br i1 %16, label %19, label %17

17:                                               ; preds = %5
  %18 = icmp sgt i32 %14, 0
  br i1 %18, label %19, label %23

19:                                               ; preds = %17, %5
  %20 = phi %struct.student* [ null, %5 ], [ %7, %17 ]
  %21 = phi %struct.student* [ %7, %5 ], [ %6, %17 ]
  %22 = getelementptr inbounds %struct.student, %struct.student* %6, i64 0, i32 6
  store %struct.student* %20, %struct.student** %22, align 8, !tbaa !9
  br label %23

23:                                               ; preds = %19, %17
  %24 = phi %struct.student* [ %7, %17 ], [ %21, %19 ]
  %25 = tail call noalias align 16 dereferenceable_or_null(100) i8* @malloc(i64 100) #4
  %26 = bitcast i8* %25 to %struct.student*
  %27 = getelementptr inbounds %struct.student, %struct.student* %26, i64 0, i32 0, i64 0
  %28 = tail call i32 (i8*, ...) @__isoc99_scanf(i8* getelementptr inbounds ([3 x i8], [3 x i8]* @.str, i64 0, i64 0), i8* %27)
  %29 = tail call i32 @strcmp(i8* noundef nonnull dereferenceable(1) %27, i8* noundef nonnull dereferenceable(4) getelementptr inbounds ([4 x i8], [4 x i8]* @.str.2, i64 0, i64 0)) #5
  %30 = icmp eq i32 %29, 0
  br i1 %30, label %31, label %5

31:                                               ; preds = %23
  ret %struct.student* %6
}

; Function Attrs: inaccessiblememonly mustprogress nofree nounwind willreturn
declare noalias noundef align 16 i8* @malloc(i64 noundef) local_unnamed_addr #1

; Function Attrs: nofree nounwind
declare noundef i32 @__isoc99_scanf(i8* nocapture noundef readonly, ...) local_unnamed_addr #2

; Function Attrs: argmemonly mustprogress nofree nounwind readonly willreturn
declare i32 @strcmp(i8* nocapture, i8* nocapture) local_unnamed_addr #3

; Function Attrs: nofree nounwind sspstrong uwtable
define dso_local void @print(%struct.student* %0) local_unnamed_addr #0 {
  %2 = icmp eq %struct.student* %0, null
  br i1 %2, label %18, label %3

3:                                                ; preds = %1, %3
  %4 = phi %struct.student* [ %16, %3 ], [ %0, %1 ]
  %5 = getelementptr inbounds %struct.student, %struct.student* %4, i64 0, i32 0, i64 0
  %6 = getelementptr inbounds %struct.student, %struct.student* %4, i64 0, i32 1, i64 0
  %7 = getelementptr inbounds %struct.student, %struct.student* %4, i64 0, i32 2, i64 0
  %8 = getelementptr inbounds %struct.student, %struct.student* %4, i64 0, i32 3
  %9 = load i32, i32* %8, align 4, !tbaa !13
  %10 = getelementptr inbounds %struct.student, %struct.student* %4, i64 0, i32 4
  %11 = load float, float* %10, align 8, !tbaa !14
  %12 = fpext float %11 to double
  %13 = getelementptr inbounds %struct.student, %struct.student* %4, i64 0, i32 5, i64 0
  %14 = tail call i32 (i8*, ...) @printf(i8* nonnull dereferenceable(1) getelementptr inbounds ([19 x i8], [19 x i8]* @.str.3, i64 0, i64 0), i8* %5, i8* nonnull %6, i8* nonnull %7, i32 %9, double %12, i8* nonnull %13)
  %15 = getelementptr inbounds %struct.student, %struct.student* %4, i64 0, i32 6
  %16 = load %struct.student*, %struct.student** %15, align 8, !tbaa !9
  %17 = icmp eq %struct.student* %16, null
  br i1 %17, label %18, label %3

18:                                               ; preds = %3, %1
  ret void
}

; Function Attrs: nofree nounwind
declare noundef i32 @printf(i8* nocapture noundef readonly, ...) local_unnamed_addr #2

; Function Attrs: nofree nounwind sspstrong uwtable
define dso_local void @main() local_unnamed_addr #0 {
  %1 = tail call %struct.student* @creat()
  %2 = icmp eq %struct.student* %1, null
  br i1 %2, label %18, label %3

3:                                                ; preds = %0, %3
  %4 = phi %struct.student* [ %16, %3 ], [ %1, %0 ]
  %5 = getelementptr inbounds %struct.student, %struct.student* %4, i64 0, i32 0, i64 0
  %6 = getelementptr inbounds %struct.student, %struct.student* %4, i64 0, i32 1, i64 0
  %7 = getelementptr inbounds %struct.student, %struct.student* %4, i64 0, i32 2, i64 0
  %8 = getelementptr inbounds %struct.student, %struct.student* %4, i64 0, i32 3
  %9 = load i32, i32* %8, align 4, !tbaa !13
  %10 = getelementptr inbounds %struct.student, %struct.student* %4, i64 0, i32 4
  %11 = load float, float* %10, align 8, !tbaa !14
  %12 = fpext float %11 to double
  %13 = getelementptr inbounds %struct.student, %struct.student* %4, i64 0, i32 5, i64 0
  %14 = tail call i32 (i8*, ...) @printf(i8* nonnull dereferenceable(1) getelementptr inbounds ([19 x i8], [19 x i8]* @.str.3, i64 0, i64 0), i8* %5, i8* nonnull %6, i8* nonnull %7, i32 %9, double %12, i8* nonnull %13) #4
  %15 = getelementptr inbounds %struct.student, %struct.student* %4, i64 0, i32 6
  %16 = load %struct.student*, %struct.student** %15, align 8, !tbaa !9
  %17 = icmp eq %struct.student* %16, null
  br i1 %17, label %18, label %3

18:                                               ; preds = %3, %0
  ret void
}


!llvm.module.flags = !{!0, !1, !2, !3}
!llvm.ident = !{!4}

!0 = !{i32 1, !"wchar_size", i32 4}
!1 = !{i32 7, !"PIC Level", i32 2}
!2 = !{i32 7, !"PIE Level", i32 2}
!3 = !{i32 7, !"uwtable", i32 1}
!4 = !{!"clang version 13.0.0"}
!5 = !{!6, !6, i64 0}
!6 = !{!"int", !7, i64 0}
!7 = !{!"omnipotent char", !8, i64 0}
!8 = !{!"Simple C/C++ TBAA"}
!9 = !{!10, !12, i64 104}
!10 = !{!"student", !7, i64 0, !7, i64 20, !7, i64 40, !6, i64 44, !11, i64 48, !7, i64 52, !12, i64 104}
!11 = !{!"float", !7, i64 0}
!12 = !{!"any pointer", !7, i64 0}
!13 = !{!10, !6, i64 44}
!14 = !{!10, !11, i64 48}
